; Function Attrs: mustprogress nofree norecurse nosync nounwind willreturn memory(read, inaccessiblemem: none) uwtable
define noundef i32 @_ZNK9AtomProxy13residueNumberEv(ptr nocapture noundef nonnull readonly align 8 dereferenceable(8) %0) local_unnamed_addr #2 align 2 {
  %2 = load ptr, ptr %0, align 8
  %3 = getelementptr inbounds i8, ptr %2, i64 16
  %4 = load ptr, ptr %3, align 8
  %5 = getelementptr inbounds i8, ptr %4, i64 8
  %6 = load ptr, ptr %5, align 8
  %7 = getelementptr inbounds i8, ptr %2, i64 32
  %8 = load i32, ptr %7, align 8
  %9 = sext i32 %8 to i64
  %10 = getelementptr inbounds %struct.t_atom, ptr %6, i64 %9, i32 7
  %11 = load i32, ptr %10, align 4
  %12 = getelementptr inbounds i8, ptr %4, i64 40
  %13 = load i32, ptr %12, align 8
  %14 = load ptr, ptr %2, align 8
  %15 = getelementptr inbounds i8, ptr %14, i64 760
  %16 = load i32, ptr %15, align 8
  %.not = icmp sgt i32 %13, %16
  br i1 %.not, label %22, label %17

17:                                               ; preds = %1
  %18 = getelementptr inbounds i8, ptr %2, i64 28
  %19 = load i32, ptr %18, align 4
  %20 = add i32 %11, 1
  %21 = add i32 %20, %19
  br label %28

22:                                               ; preds = %1
  %23 = getelementptr inbounds i8, ptr %4, i64 48
  %24 = load ptr, ptr %23, align 8
  %25 = sext i32 %11 to i64
  %26 = getelementptr inbounds %struct.t_resinfo, ptr %24, i64 %25, i32 1
  %27 = load i32, ptr %26, align 8
  br label %28

28:                                               ; preds = %22, %17
  %.0 = phi i32 [ %21, %17 ], [ %27, %22 ]
  ret i32 %.0
}